; Function Attrs: mustprogress uwtable
define noundef double @_ZN5Ipopt25IpoptCalculatedQuantities29unscaled_curr_complementarityEdNS_9ENormTypeE(ptr noundef nonnull align 8 dereferenceable(2185) %0, double noundef %1, i32 noundef %2) unnamed_addr #6 align 2 personality ptr @__gxx_personality_v0 {
  %4 = alloca double, align 8
  %5 = getelementptr inbounds nuw i8, ptr %0, i64 16
  %6 = load ptr, ptr %5, align 8, !tbaa !21
  %7 = getelementptr inbounds nuw i8, ptr %6, i64 16
  %8 = load ptr, ptr %7, align 8, !tbaa !426, !noalias !2009
  %.not.i.i.i.i = icmp eq ptr %8, null
  br i1 %.not.i.i.i.i, label %_ZNK5Ipopt8IpoptNLP11NLP_scalingEv.exit, label %9

9:                                                ; preds = %3
  %10 = getelementptr inbounds nuw i8, ptr %8, i64 8
  %11 = load i32, ptr %10, align 8, !tbaa !13, !noalias !2009
  %12 = add nsw i32 %11, 1
  store i32 %12, ptr %10, align 8, !tbaa !13, !noalias !2009
  br label %_ZNK5Ipopt8IpoptNLP11NLP_scalingEv.exit

_ZNK5Ipopt8IpoptNLP11NLP_scalingEv.exit:          ; preds = %3, %9
  call void @llvm.lifetime.start.p0(i64 8, ptr nonnull %4) #26
  %13 = load ptr, ptr %0, align 8, !tbaa !16
  %14 = getelementptr inbounds nuw i8, ptr %13, i64 160
  %15 = load ptr, ptr %14, align 8
  %16 = invoke noundef double %15(ptr noundef nonnull align 8 dereferenceable(2185) %0, double noundef %1, i32 noundef %2)
          to label %17 unwind label %33

17:                                               ; preds = %_ZNK5Ipopt8IpoptNLP11NLP_scalingEv.exit
  store double %16, ptr %4, align 8, !tbaa !396
  %18 = load ptr, ptr %8, align 8, !tbaa !16
  %19 = getelementptr inbounds nuw i8, ptr %18, i64 24
  %20 = load ptr, ptr %19, align 8
  %21 = invoke noundef double %20(ptr noundef nonnull align 8 dereferenceable(24) %8, ptr noundef nonnull align 8 dereferenceable(8) %4)
          to label %23 unwind label %.thread

.thread:                                          ; preds = %17
  %22 = landingpad { ptr, i32 }
          cleanup
  call void @llvm.lifetime.end.p0(i64 8, ptr nonnull %4) #26
  br label %35

23:                                               ; preds = %17
  call void @llvm.lifetime.end.p0(i64 8, ptr nonnull %4) #26
  %24 = getelementptr inbounds nuw i8, ptr %8, i64 8
  %25 = load i32, ptr %24, align 8, !tbaa !13
  %26 = add nsw i32 %25, -1
  store i32 %26, ptr %24, align 8, !tbaa !13
  %27 = icmp eq i32 %26, 0
  br i1 %27, label %28, label %_ZN5Ipopt8SmartPtrINS_16NLPScalingObjectEED2Ev.exit

28:                                               ; preds = %23
  %29 = load ptr, ptr %8, align 8, !tbaa !16
  %30 = getelementptr inbounds nuw i8, ptr %29, i64 8
  %31 = load ptr, ptr %30, align 8
  call void %31(ptr noundef nonnull align 8 dereferenceable(24) %8) #26
  br label %_ZN5Ipopt8SmartPtrINS_16NLPScalingObjectEED2Ev.exit

_ZN5Ipopt8SmartPtrINS_16NLPScalingObjectEED2Ev.exit: ; preds = %23, %28
  %32 = call noundef double @llvm.fabs.f64(double %21)
  ret double %32

33:                                               ; preds = %_ZNK5Ipopt8IpoptNLP11NLP_scalingEv.exit
  %34 = landingpad { ptr, i32 }
          cleanup
  call void @llvm.lifetime.end.p0(i64 8, ptr nonnull %4) #26
  br i1 %.not.i.i.i.i, label %_ZN5Ipopt8SmartPtrINS_16NLPScalingObjectEED2Ev.exit5, label %35

35:                                               ; preds = %.thread, %33
  %36 = phi { ptr, i32 } [ %22, %.thread ], [ %34, %33 ]
  %37 = getelementptr inbounds nuw i8, ptr %8, i64 8
  %38 = load i32, ptr %37, align 8, !tbaa !13
  %39 = add nsw i32 %38, -1
  store i32 %39, ptr %37, align 8, !tbaa !13
  %40 = icmp eq i32 %39, 0
  br i1 %40, label %41, label %_ZN5Ipopt8SmartPtrINS_16NLPScalingObjectEED2Ev.exit5

41:                                               ; preds = %35
  %42 = load ptr, ptr %8, align 8, !tbaa !16
  %43 = getelementptr inbounds nuw i8, ptr %42, i64 8
  %44 = load ptr, ptr %43, align 8
  call void %44(ptr noundef nonnull align 8 dereferenceable(24) %8) #26
  br label %_ZN5Ipopt8SmartPtrINS_16NLPScalingObjectEED2Ev.exit5

_ZN5Ipopt8SmartPtrINS_16NLPScalingObjectEED2Ev.exit5: ; preds = %33, %35, %41
  %45 = phi { ptr, i32 } [ %34, %33 ], [ %36, %35 ], [ %36, %41 ]
  resume { ptr, i32 } %45
}